target datalayout = "e-m:e-p270:32:32-p271:32:32-p272:64:64-i64:64-i128:128-f80:128-n8:16:32:64-S128"
target triple = "x86_64-unknown-linux-gnu"

; Function Attrs: mustprogress nounwind uwtable
define hidden void @_Z18bcdec__swap_valuesPiS_(ptr noundef %a, ptr noundef %b) #4 {
entry:
  %a.addr = alloca ptr, align 8
  %b.addr = alloca ptr, align 8
  store ptr %a, ptr %a.addr, align 8
  store ptr %b, ptr %b.addr, align 8
  %0 = load ptr, ptr %b.addr, align 8
  %arrayidx = getelementptr inbounds i32, ptr %0, i64 0
  %1 = load i32, ptr %arrayidx, align 4
  %2 = load ptr, ptr %a.addr, align 8
  %arrayidx1 = getelementptr inbounds i32, ptr %2, i64 0
  %3 = load i32, ptr %arrayidx1, align 4
  %xor = xor i32 %3, %1
  store i32 %xor, ptr %arrayidx1, align 4
  %4 = load ptr, ptr %a.addr, align 8
  %arrayidx2 = getelementptr inbounds i32, ptr %4, i64 0
  %5 = load i32, ptr %arrayidx2, align 4
  %6 = load ptr, ptr %b.addr, align 8
  %arrayidx3 = getelementptr inbounds i32, ptr %6, i64 0
  %7 = load i32, ptr %arrayidx3, align 4
  %xor4 = xor i32 %7, %5
  store i32 %xor4, ptr %arrayidx3, align 4
  %8 = load ptr, ptr %b.addr, align 8
  %arrayidx5 = getelementptr inbounds i32, ptr %8, i64 0
  %9 = load i32, ptr %arrayidx5, align 4
  %10 = load ptr, ptr %a.addr, align 8
  %arrayidx6 = getelementptr inbounds i32, ptr %10, i64 0
  %11 = load i32, ptr %arrayidx6, align 4
  %xor7 = xor i32 %11, %9
  store i32 %xor7, ptr %arrayidx6, align 4
  ret void
}