; Function Attrs: mustprogress nofree norecurse nosync nounwind willreturn memory(argmem: readwrite) uwtable
define hidden void @_Z18bcdec__swap_valuesPiS_(ptr nocapture noundef %a, ptr nocapture noundef %b) local_unnamed_addr #6 {
entry:
  %0 = load i32, ptr %b, align 4
  %1 = load i32, ptr %a, align 4
  %xor = xor i32 %1, %0
  store i32 %xor, ptr %a, align 4
  %2 = load i32, ptr %b, align 4
  %xor4 = xor i32 %2, %xor
  store i32 %xor4, ptr %b, align 4
  %3 = load i32, ptr %a, align 4
  %xor7 = xor i32 %3, %xor4
  store i32 %xor7, ptr %a, align 4
  ret void
}